target datalayout = "e-m:e-p270:32:32-p271:32:32-p272:64:64-i64:64-i128:128-f80:128-n8:16:32:64-S128"
target triple = "x86_64-pc-linux-gnu"

%union.pthread_mutex_t = type { %struct.__pthread_mutex_s }
%struct.__pthread_mutex_s = type { i32, i32, i32, i32, i32, i16, i16, %struct.__pthread_internal_list }
%struct.__pthread_internal_list = type { ptr, ptr }
%union.pthread_cond_t = type { %struct.__pthread_cond_s }
%struct.__pthread_cond_s = type { %union.__atomic_wide_counter, %union.__atomic_wide_counter, [2 x i32], [2 x i32], i32, i32, [2 x i32] }
%union.__atomic_wide_counter = type { i64 }
%struct.jobgroup = type { %union.pthread_mutex_t, %union.pthread_cond_t, i32, i32, i32, i32, i32 }
%struct.timespec = type { i64, i64 }

@.str.20 = private unnamed_addr constant [32 x i8] c"THRMGR: active jobs for %p: %d\0A\00", align 1
@exit_mutex = external global %union.pthread_mutex_t, align 8
@progexit = external global i32, align 4
@.str.23 = private unnamed_addr constant [35 x i8] c"THRMGR: group finished freeing %p\0A\00", align 1

; Function Attrs: nounwind uwtable
define dso_local void @thrmgr_group_waitforall(ptr noundef %0, ptr noundef %1, ptr noundef %2, ptr noundef %3) #0 {
  %5 = alloca ptr, align 8
  %6 = alloca ptr, align 8
  %7 = alloca ptr, align 8
  %8 = alloca ptr, align 8
  %9 = alloca i32, align 4
  %10 = alloca i32, align 4
  %11 = alloca %struct.timespec, align 8
  store ptr %0, ptr %5, align 8
  store ptr %1, ptr %6, align 8
  store ptr %2, ptr %7, align 8
  store ptr %3, ptr %8, align 8
  store i32 0, ptr %9, align 4
  store i32 0, ptr %10, align 4
  %12 = load ptr, ptr %5, align 8
  %13 = getelementptr inbounds %struct.jobgroup, ptr %12, i32 0, i32 0
  %14 = call i32 @pthread_mutex_lock(ptr noundef %13) #8
  br label %15

15:                                               ; preds = %27, %4
  %16 = load ptr, ptr %5, align 8
  %17 = getelementptr inbounds %struct.jobgroup, ptr %16, i32 0, i32 2
  %18 = load i32, ptr %17, align 8
  %19 = icmp ugt i32 %18, 1
  br i1 %19, label %20, label %37

20:                                               ; preds = %15
  %21 = call i32 @pthread_mutex_lock(ptr noundef @exit_mutex) #8
  %22 = load i32, ptr @progexit, align 4
  store i32 %22, ptr %9, align 4
  %23 = call i32 @pthread_mutex_unlock(ptr noundef @exit_mutex) #8
  %24 = load i32, ptr %9, align 4
  %25 = icmp ne i32 %24, 0
  br i1 %25, label %26, label %27

26:                                               ; preds = %20
  br label %37

27:                                               ; preds = %20
  %28 = call i64 @time(ptr noundef null) #8
  %29 = add nsw i64 %28, 5
  %30 = getelementptr inbounds %struct.timespec, ptr %11, i32 0, i32 0
  store i64 %29, ptr %30, align 8
  %31 = getelementptr inbounds %struct.timespec, ptr %11, i32 0, i32 1
  store i64 0, ptr %31, align 8
  %32 = load ptr, ptr %5, align 8
  %33 = getelementptr inbounds %struct.jobgroup, ptr %32, i32 0, i32 1
  %34 = load ptr, ptr %5, align 8
  %35 = getelementptr inbounds %struct.jobgroup, ptr %34, i32 0, i32 0
  %36 = call i32 @pthread_cond_timedwait(ptr noundef %33, ptr noundef %35, ptr noundef %11)
  br label %15

37:                                               ; preds = %26, %15
  %38 = load ptr, ptr %5, align 8
  %39 = getelementptr inbounds %struct.jobgroup, ptr %38, i32 0, i32 3
  %40 = load i32, ptr %39, align 4
  %41 = load ptr, ptr %6, align 8
  store i32 %40, ptr %41, align 4
  %42 = load ptr, ptr %5, align 8
  %43 = getelementptr inbounds %struct.jobgroup, ptr %42, i32 0, i32 4
  %44 = load i32, ptr %43, align 8
  %45 = load i32, ptr %9, align 4
  %46 = add i32 %44, %45
  %47 = load ptr, ptr %7, align 8
  store i32 %46, ptr %47, align 4
  %48 = load ptr, ptr %5, align 8
  %49 = getelementptr inbounds %struct.jobgroup, ptr %48, i32 0, i32 5
  %50 = load i32, ptr %49, align 4
  %51 = load ptr, ptr %8, align 8
  store i32 %50, ptr %51, align 4
  %52 = load ptr, ptr %5, align 8
  %53 = getelementptr inbounds %struct.jobgroup, ptr %52, i32 0, i32 2
  %54 = load i32, ptr %53, align 8
  %55 = add i32 %54, -1
  store i32 %55, ptr %53, align 8
  %56 = icmp ne i32 %55, 0
  br i1 %56, label %58, label %57

57:                                               ; preds = %37
  store i32 1, ptr %10, align 4
  br label %64

58:                                               ; preds = %37
  %59 = load ptr, ptr %5, align 8
  %60 = load ptr, ptr %5, align 8
  %61 = getelementptr inbounds %struct.jobgroup, ptr %60, i32 0, i32 2
  %62 = load i32, ptr %61, align 8
  %63 = call i32 (i32, ptr, ...) @logg(i32 noundef 3, ptr noundef @.str.20, ptr noundef %59, i32 noundef %62)
  br label %64

64:                                               ; preds = %58, %57
  %65 = load ptr, ptr %5, align 8
  %66 = getelementptr inbounds %struct.jobgroup, ptr %65, i32 0, i32 0
  %67 = call i32 @pthread_mutex_unlock(ptr noundef %66) #8
  %68 = load i32, ptr %10, align 4
  %69 = icmp ne i32 %68, 0
  br i1 %69, label %70, label %74

70:                                               ; preds = %64
  %71 = load ptr, ptr %5, align 8
  %72 = call i32 (i32, ptr, ...) @logg(i32 noundef 3, ptr noundef @.str.23, ptr noundef %71)
  %73 = load ptr, ptr %5, align 8
  call void @free(ptr noundef %73) #8
  br label %74

74:                                               ; preds = %70, %64
  ret void
}