; Function Attrs: nounwind uwtable
define dso_local void @thrmgr_group_waitforall(ptr noundef %0, ptr nocapture noundef writeonly %1, ptr nocapture noundef writeonly %2, ptr nocapture noundef writeonly %3) local_unnamed_addr #0 {
  %5 = alloca %struct.timespec, align 8
  %6 = tail call i32 @pthread_mutex_lock(ptr noundef %0) #12
  %7 = getelementptr inbounds i8, ptr %0, i64 88
  %8 = load i32, ptr %7, align 8
  %9 = icmp ugt i32 %8, 1
  br i1 %9, label %.lr.ph, label %._crit_edge

.lr.ph:                                           ; preds = %4
  %10 = getelementptr inbounds i8, ptr %5, i64 8
  %11 = getelementptr inbounds i8, ptr %0, i64 40
  br label %12

12:                                               ; preds = %.lr.ph, %16
  %13 = call i32 @pthread_mutex_lock(ptr noundef nonnull @exit_mutex) #12
  %14 = load i32, ptr @progexit, align 4
  %15 = call i32 @pthread_mutex_unlock(ptr noundef nonnull @exit_mutex) #12
  %.not = icmp eq i32 %14, 0
  br i1 %.not, label %16, label %._crit_edge

16:                                               ; preds = %12
  %17 = call i64 @time(ptr noundef null) #12
  %18 = add nsw i64 %17, 5
  store i64 %18, ptr %5, align 8
  store i64 0, ptr %10, align 8
  %19 = call i32 @pthread_cond_timedwait(ptr noundef nonnull %11, ptr noundef nonnull %0, ptr noundef nonnull %5) #12
  %20 = load i32, ptr %7, align 8
  %21 = icmp ugt i32 %20, 1
  br i1 %21, label %12, label %._crit_edge

._crit_edge:                                      ; preds = %16, %12, %4
  %.1 = phi i32 [ 0, %4 ], [ %14, %12 ], [ 0, %16 ]
  %22 = getelementptr inbounds i8, ptr %0, i64 92
  %23 = load i32, ptr %22, align 4
  store i32 %23, ptr %1, align 4
  %24 = getelementptr inbounds i8, ptr %0, i64 96
  %25 = load i32, ptr %24, align 8
  %26 = add i32 %25, %.1
  store i32 %26, ptr %2, align 4
  %27 = getelementptr inbounds i8, ptr %0, i64 100
  %28 = load i32, ptr %27, align 4
  store i32 %28, ptr %3, align 4
  %29 = load i32, ptr %7, align 8
  %30 = add i32 %29, -1
  store i32 %30, ptr %7, align 8
  %.not22.not = icmp eq i32 %30, 0
  br i1 %.not22.not, label %.critedge, label %31

31:                                               ; preds = %._crit_edge
  %32 = call i32 (i32, ptr, ...) @logg(i32 noundef 3, ptr noundef nonnull @.str.20, ptr noundef nonnull %0, i32 noundef %30) #12
  %33 = call i32 @pthread_mutex_unlock(ptr noundef nonnull %0) #12
  br label %36

.critedge:                                        ; preds = %._crit_edge
  %34 = call i32 @pthread_mutex_unlock(ptr noundef nonnull %0) #12
  %35 = call i32 (i32, ptr, ...) @logg(i32 noundef 3, ptr noundef nonnull @.str.23, ptr noundef nonnull %0) #12
  call void @free(ptr noundef nonnull %0) #12
  br label %36

36:                                               ; preds = %31, %.critedge
  ret void
}